; Function Attrs: mustprogress nounwind uwtable
define internal void @_ZN7mitsubaL16jpeg_term_sourceEP22jpeg_decompress_struct(ptr nocapture noundef readonly %0) #6 {
  %2 = getelementptr inbounds i8, ptr %0, i64 40
  %3 = load ptr, ptr %2, align 8
  %4 = getelementptr inbounds i8, ptr %3, i64 56
  %5 = load ptr, ptr %4, align 8
  %6 = icmp eq ptr %5, null
  br i1 %6, label %8, label %7

7:                                                ; preds = %1
  tail call void @_ZdaPv(ptr noundef nonnull %5) #35
  br label %8

8:                                                ; preds = %7, %1
  ret void
}